target datalayout = "e-m:e-p270:32:32-p271:32:32-p272:64:64-i64:64-i128:128-f80:128-n8:16:32:64-S128"
target triple = "x86_64-pc-linux-gnu"

%"class.std::__cxx11::basic_string" = type { %"struct.std::__cxx11::basic_string<char>::_Alloc_hider", i64, %union.anon }
%"struct.std::__cxx11::basic_string<char>::_Alloc_hider" = type { ptr }
%union.anon = type { i64, [8 x i8] }
%class.anon.977 = type { i8 }
%"class.std::initializer_list.962" = type { ptr, i64 }
%"struct.std::pair.963" = type { %"class.std::basic_string_view", ptr }
%"class.std::basic_string_view" = type { i64, ptr }
%class.cmAlphaNum = type { ptr, %"class.std::basic_string_view", [32 x i8] }

@.str.10 = private unnamed_addr constant [12 x i8] c"CMakeFiles/\00", align 1
@.str.11 = private unnamed_addr constant [5 x i8] c".dir\00", align 1
@_ZZ8cmStrCatIRA12_KcRKNSt7__cxx1112basic_stringIcSt11char_traitsIcESaIcEEEJEES8_OT_OT0_DpOT1_E8makePair = linkonce_odr dso_local constant %class.anon.977 undef, comdat, align 1

; Function Attrs: noreturn nounwind uwtable
define linkonce_odr hidden void @__clang_call_terminate(ptr noundef %0) #9 comdat {
  %2 = call ptr @__cxa_begin_catch(ptr %0) #3
  call void @_ZSt9terminatev() #16
  unreachable
}

; Function Attrs: mustprogress nounwind uwtable
define linkonce_odr dso_local noundef i64 @_ZNSt11char_traitsIcE6lengthEPKc(ptr noundef %0) #5 comdat align 2 {
  %2 = alloca ptr, align 8
  store ptr %0, ptr %2, align 8
  %3 = load ptr, ptr %2, align 8
  %4 = call i64 @strlen(ptr noundef %3) #3
  ret i64 %4
}

; Function Attrs: mustprogress nounwind uwtable
define linkonce_odr dso_local void @_ZNSt4pairISt17basic_string_viewIcSt11char_traitsIcEEPNSt7__cxx1112basic_stringIcS2_SaIcEEEEC2IS3_S8_TnNSt9enable_ifIXaaclsr5_PCCPE22_MoveConstructiblePairIT_T0_EEclsr5_PCCPE30_ImplicitlyMoveConvertiblePairISC_SD_EEEbE4typeELb1EEEOSC_OSD_(ptr noundef nonnull align 8 dereferenceable(24) %0, ptr noundef nonnull align 8 dereferenceable(16) %1, ptr noundef nonnull align 8 dereferenceable(8) %2) unnamed_addr #5 comdat align 2 {
  %4 = alloca ptr, align 8
  %5 = alloca ptr, align 8
  %6 = alloca ptr, align 8
  store ptr %0, ptr %4, align 8
  store ptr %1, ptr %5, align 8
  store ptr %2, ptr %6, align 8
  %7 = load ptr, ptr %4, align 8
  %8 = getelementptr inbounds %"struct.std::pair.963", ptr %7, i32 0, i32 0
  %9 = load ptr, ptr %5, align 8
  call void @llvm.memcpy.p0.p0.i64(ptr align 8 %8, ptr align 8 %9, i64 16, i1 false)
  %10 = getelementptr inbounds %"struct.std::pair.963", ptr %7, i32 0, i32 1
  %11 = load ptr, ptr %6, align 8
  %12 = load ptr, ptr %11, align 8
  store ptr %12, ptr %10, align 8
  ret void
}

; Function Attrs: mustprogress nounwind uwtable
define linkonce_odr dso_local noundef ptr @_ZNK10cmAlphaNum12RValueStringB5cxx11Ev(ptr noundef nonnull align 8 dereferenceable(56) %0) #5 comdat align 2 {
  %2 = alloca ptr, align 8
  store ptr %0, ptr %2, align 8
  %3 = load ptr, ptr %2, align 8
  %4 = getelementptr inbounds %class.cmAlphaNum, ptr %3, i32 0, i32 0
  %5 = load ptr, ptr %4, align 8
  ret ptr %5
}

; Function Attrs: mustprogress nounwind uwtable
define linkonce_odr dso_local { i64, ptr } @_ZNK10cmAlphaNum4ViewEv(ptr noundef nonnull align 8 dereferenceable(56) %0) #5 comdat align 2 {
  %2 = alloca %"class.std::basic_string_view", align 8
  %3 = alloca ptr, align 8
  store ptr %0, ptr %3, align 8
  %4 = load ptr, ptr %3, align 8
  %5 = getelementptr inbounds %class.cmAlphaNum, ptr %4, i32 0, i32 0
  %6 = load ptr, ptr %5, align 8
  %7 = icmp ne ptr %6, null
  br i1 %7, label %8, label %16

8:                                                ; preds = %1
  %9 = getelementptr inbounds %class.cmAlphaNum, ptr %4, i32 0, i32 0
  %10 = load ptr, ptr %9, align 8
  %11 = call { i64, ptr } @_ZNKSt7__cxx1112basic_stringIcSt11char_traitsIcESaIcEEcvSt17basic_string_viewIcS2_EEv(ptr noundef nonnull align 8 dereferenceable(32) %10) #3
  %12 = getelementptr inbounds { i64, ptr }, ptr %2, i32 0, i32 0
  %13 = extractvalue { i64, ptr } %11, 0
  store i64 %13, ptr %12, align 8
  %14 = getelementptr inbounds { i64, ptr }, ptr %2, i32 0, i32 1
  %15 = extractvalue { i64, ptr } %11, 1
  store ptr %15, ptr %14, align 8
  br label %18

16:                                               ; preds = %1
  %17 = getelementptr inbounds %class.cmAlphaNum, ptr %4, i32 0, i32 1
  call void @llvm.memcpy.p0.p0.i64(ptr align 8 %2, ptr align 8 %17, i64 16, i1 false)
  br label %18

18:                                               ; preds = %16, %8
  %19 = load { i64, ptr }, ptr %2, align 8
  ret { i64, ptr } %19
}

; Function Attrs: mustprogress nounwind uwtable
define linkonce_odr dso_local void @_ZNSt17basic_string_viewIcSt11char_traitsIcEEC2EPKc(ptr noundef nonnull align 8 dereferenceable(16) %0, ptr noundef nonnull %1) unnamed_addr #5 comdat align 2 personality ptr @__gxx_personality_v0 {
  %3 = alloca ptr, align 8
  %4 = alloca ptr, align 8
  store ptr %0, ptr %3, align 8
  store ptr %1, ptr %4, align 8
  %5 = load ptr, ptr %3, align 8
  %6 = getelementptr inbounds %"class.std::basic_string_view", ptr %5, i32 0, i32 0
  %7 = load ptr, ptr %4, align 8
  %8 = invoke noundef i64 @_ZNSt11char_traitsIcE6lengthEPKc(ptr noundef %7)
          to label %9 unwind label %12

9:                                                ; preds = %2
  store i64 %8, ptr %6, align 8
  %10 = getelementptr inbounds %"class.std::basic_string_view", ptr %5, i32 0, i32 1
  %11 = load ptr, ptr %4, align 8
  store ptr %11, ptr %10, align 8
  ret void

12:                                               ; preds = %2
  %13 = landingpad { ptr, i32 }
          catch ptr null
  %14 = extractvalue { ptr, i32 } %13, 0
  call void @__clang_call_terminate(ptr %14) #16
  unreachable
}

; Function Attrs: mustprogress nounwind uwtable
define linkonce_odr dso_local void @_ZN10cmAlphaNumC2ERKNSt7__cxx1112basic_stringIcSt11char_traitsIcESaIcEEE(ptr noundef nonnull align 8 dereferenceable(56) %0, ptr noundef nonnull align 8 dereferenceable(32) %1) unnamed_addr #5 comdat align 2 {
  %3 = alloca ptr, align 8
  %4 = alloca ptr, align 8
  store ptr %0, ptr %3, align 8
  store ptr %1, ptr %4, align 8
  %5 = load ptr, ptr %3, align 8
  %6 = getelementptr inbounds %class.cmAlphaNum, ptr %5, i32 0, i32 0
  store ptr null, ptr %6, align 8
  %7 = getelementptr inbounds %class.cmAlphaNum, ptr %5, i32 0, i32 1
  %8 = load ptr, ptr %4, align 8
  %9 = call { i64, ptr } @_ZNKSt7__cxx1112basic_stringIcSt11char_traitsIcESaIcEEcvSt17basic_string_viewIcS2_EEv(ptr noundef nonnull align 8 dereferenceable(32) %8) #3
  %10 = getelementptr inbounds { i64, ptr }, ptr %7, i32 0, i32 0
  %11 = extractvalue { i64, ptr } %9, 0
  store i64 %11, ptr %10, align 8
  %12 = getelementptr inbounds { i64, ptr }, ptr %7, i32 0, i32 1
  %13 = extractvalue { i64, ptr } %9, 1
  store ptr %13, ptr %12, align 8
  ret void
}

; Function Attrs: mustprogress uwtable
define linkonce_odr dso_local void @_ZZ8cmStrCatIRA12_KcRKNSt7__cxx1112basic_stringIcSt11char_traitsIcESaIcEEEJEES8_OT_OT0_DpOT1_ENKUlRK10cmAlphaNumE_clB5cxx11ESK_(ptr dead_on_unwind noalias writable sret(%"struct.std::pair.963") align 8 %0, ptr noundef nonnull align 1 dereferenceable(1) %1, ptr noundef nonnull align 8 dereferenceable(56) %2) #4 comdat align 2 {
  %4 = alloca ptr, align 8
  %5 = alloca ptr, align 8
  %6 = alloca %"class.std::basic_string_view", align 8
  %7 = alloca ptr, align 8
  store ptr %1, ptr %4, align 8
  store ptr %2, ptr %5, align 8
  %8 = load ptr, ptr %5, align 8
  %9 = call { i64, ptr } @_ZNK10cmAlphaNum4ViewEv(ptr noundef nonnull align 8 dereferenceable(56) %8)
  %10 = getelementptr inbounds { i64, ptr }, ptr %6, i32 0, i32 0
  %11 = extractvalue { i64, ptr } %9, 0
  store i64 %11, ptr %10, align 8
  %12 = getelementptr inbounds { i64, ptr }, ptr %6, i32 0, i32 1
  %13 = extractvalue { i64, ptr } %9, 1
  store ptr %13, ptr %12, align 8
  %14 = load ptr, ptr %5, align 8
  %15 = call noundef ptr @_ZNK10cmAlphaNum12RValueStringB5cxx11Ev(ptr noundef nonnull align 8 dereferenceable(56) %14)
  store ptr %15, ptr %7, align 8
  call void @_ZNSt4pairISt17basic_string_viewIcSt11char_traitsIcEEPNSt7__cxx1112basic_stringIcS2_SaIcEEEEC2IS3_S8_TnNSt9enable_ifIXaaclsr5_PCCPE22_MoveConstructiblePairIT_T0_EEclsr5_PCCPE30_ImplicitlyMoveConvertiblePairISC_SD_EEEbE4typeELb1EEEOSC_OSD_(ptr noundef nonnull align 8 dereferenceable(24) %0, ptr noundef nonnull align 8 dereferenceable(16) %6, ptr noundef nonnull align 8 dereferenceable(8) %7)
  ret void
}

; Function Attrs: mustprogress nounwind uwtable
define linkonce_odr dso_local void @_ZN10cmAlphaNumC2EPKc(ptr noundef nonnull align 8 dereferenceable(56) %0, ptr noundef %1) unnamed_addr #5 comdat align 2 {
  %3 = alloca ptr, align 8
  %4 = alloca ptr, align 8
  store ptr %0, ptr %3, align 8
  store ptr %1, ptr %4, align 8
  %5 = load ptr, ptr %3, align 8
  %6 = getelementptr inbounds %class.cmAlphaNum, ptr %5, i32 0, i32 0
  store ptr null, ptr %6, align 8
  %7 = getelementptr inbounds %class.cmAlphaNum, ptr %5, i32 0, i32 1
  %8 = load ptr, ptr %4, align 8
  call void @_ZNSt17basic_string_viewIcSt11char_traitsIcEEC2EPKc(ptr noundef nonnull align 8 dereferenceable(16) %7, ptr noundef %8) #3
  ret void
}

; Function Attrs: mustprogress uwtable
define linkonce_odr dso_local void @_Z8cmStrCatIRA12_KcRKNSt7__cxx1112basic_stringIcSt11char_traitsIcESaIcEEEJEES8_OT_OT0_DpOT1_(ptr dead_on_unwind noalias writable sret(%"class.std::__cxx11::basic_string") align 8 %0, ptr noundef nonnull align 1 dereferenceable(12) %1, ptr noundef nonnull align 8 dereferenceable(32) %2) #4 comdat {
  %4 = alloca ptr, align 8
  %5 = alloca ptr, align 8
  %6 = alloca ptr, align 8
  %7 = alloca %"class.std::initializer_list.962", align 8
  %8 = alloca [2 x %"struct.std::pair.963"], align 8
  %9 = alloca %class.cmAlphaNum, align 8
  %10 = alloca %class.cmAlphaNum, align 8
  store ptr %0, ptr %4, align 8
  store ptr %1, ptr %5, align 8
  store ptr %2, ptr %6, align 8
  %11 = getelementptr inbounds [2 x %"struct.std::pair.963"], ptr %8, i64 0, i64 0
  %12 = load ptr, ptr %5, align 8
  %13 = getelementptr inbounds [12 x i8], ptr %12, i64 0, i64 0
  call void @_ZN10cmAlphaNumC2EPKc(ptr noundef nonnull align 8 dereferenceable(56) %9, ptr noundef %13)
  call void @_ZZ8cmStrCatIRA12_KcRKNSt7__cxx1112basic_stringIcSt11char_traitsIcESaIcEEEJEES8_OT_OT0_DpOT1_ENKUlRK10cmAlphaNumE_clB5cxx11ESK_(ptr dead_on_unwind writable sret(%"struct.std::pair.963") align 8 %11, ptr noundef nonnull align 1 dereferenceable(1) @_ZZ8cmStrCatIRA12_KcRKNSt7__cxx1112basic_stringIcSt11char_traitsIcESaIcEEEJEES8_OT_OT0_DpOT1_E8makePair, ptr noundef nonnull align 8 dereferenceable(56) %9)
  %14 = getelementptr inbounds %"struct.std::pair.963", ptr %11, i64 1
  %15 = load ptr, ptr %6, align 8
  call void @_ZN10cmAlphaNumC2ERKNSt7__cxx1112basic_stringIcSt11char_traitsIcESaIcEEE(ptr noundef nonnull align 8 dereferenceable(56) %10, ptr noundef nonnull align 8 dereferenceable(32) %15)
  call void @_ZZ8cmStrCatIRA12_KcRKNSt7__cxx1112basic_stringIcSt11char_traitsIcESaIcEEEJEES8_OT_OT0_DpOT1_ENKUlRK10cmAlphaNumE_clB5cxx11ESK_(ptr dead_on_unwind writable sret(%"struct.std::pair.963") align 8 %14, ptr noundef nonnull align 1 dereferenceable(1) @_ZZ8cmStrCatIRA12_KcRKNSt7__cxx1112basic_stringIcSt11char_traitsIcESaIcEEEJEES8_OT_OT0_DpOT1_E8makePair, ptr noundef nonnull align 8 dereferenceable(56) %10)
  %16 = getelementptr inbounds %"class.std::initializer_list.962", ptr %7, i32 0, i32 0
  %17 = getelementptr inbounds [2 x %"struct.std::pair.963"], ptr %8, i64 0, i64 0
  store ptr %17, ptr %16, align 8
  %18 = getelementptr inbounds %"class.std::initializer_list.962", ptr %7, i32 0, i32 1
  store i64 2, ptr %18, align 8
  %19 = getelementptr inbounds { ptr, i64 }, ptr %7, i32 0, i32 0
  %20 = load ptr, ptr %19, align 8
  %21 = getelementptr inbounds { ptr, i64 }, ptr %7, i32 0, i32 1
  %22 = load i64, ptr %21, align 8
  call void @_Z10cmCatViewsSt16initializer_listISt4pairISt17basic_string_viewIcSt11char_traitsIcEEPNSt7__cxx1112basic_stringIcS3_SaIcEEEEE(ptr dead_on_unwind writable sret(%"class.std::__cxx11::basic_string") align 8 %0, ptr %20, i64 %22)
  ret void
}

; Function Attrs: mustprogress uwtable
define dso_local void @_ZNK21cmLocalNinjaGenerator18GetTargetDirectoryB5cxx11EPK17cmGeneratorTarget(ptr dead_on_unwind noalias writable sret(%"class.std::__cxx11::basic_string") align 8 %0, ptr noundef nonnull align 8 dereferenceable(952) %1, ptr noundef %2) unnamed_addr #4 align 2 personality ptr @__gxx_personality_v0 {
  %4 = alloca ptr, align 8
  %5 = alloca ptr, align 8
  %6 = alloca ptr, align 8
  %7 = alloca i1, align 1
  %8 = alloca ptr, align 8
  %9 = alloca i32, align 4
  store ptr %0, ptr %4, align 8
  store ptr %1, ptr %5, align 8
  store ptr %2, ptr %6, align 8
  store i1 false, ptr %7, align 1
  %10 = load ptr, ptr %6, align 8
  %11 = call noundef nonnull align 8 dereferenceable(32) ptr @_ZNK17cmGeneratorTarget7GetNameB5cxx11Ev(ptr noundef nonnull align 8 dereferenceable(2728) %10)
  call void @_Z8cmStrCatIRA12_KcRKNSt7__cxx1112basic_stringIcSt11char_traitsIcESaIcEEEJEES8_OT_OT0_DpOT1_(ptr dead_on_unwind writable sret(%"class.std::__cxx11::basic_string") align 8 %0, ptr noundef nonnull align 1 dereferenceable(12) @.str.10, ptr noundef nonnull align 8 dereferenceable(32) %11)
  %12 = invoke noundef nonnull align 8 dereferenceable(32) ptr @_ZNSt7__cxx1112basic_stringIcSt11char_traitsIcESaIcEEpLEPKc(ptr noundef nonnull align 8 dereferenceable(32) %0, ptr noundef @.str.11)
          to label %13 unwind label %15

13:                                               ; preds = %3
  store i1 true, ptr %7, align 1
  %14 = load i1, ptr %7, align 1
  br i1 %14, label %20, label %19

15:                                               ; preds = %3
  %16 = landingpad { ptr, i32 }
          cleanup
  %17 = extractvalue { ptr, i32 } %16, 0
  store ptr %17, ptr %8, align 8
  %18 = extractvalue { ptr, i32 } %16, 1
  store i32 %18, ptr %9, align 4
  call void @_ZNSt7__cxx1112basic_stringIcSt11char_traitsIcESaIcEED1Ev(ptr noundef nonnull align 8 dereferenceable(32) %0) #3
  br label %21

19:                                               ; preds = %13
  call void @_ZNSt7__cxx1112basic_stringIcSt11char_traitsIcESaIcEED1Ev(ptr noundef nonnull align 8 dereferenceable(32) %0) #3
  br label %20

20:                                               ; preds = %19, %13
  ret void

21:                                               ; preds = %15
  %22 = load ptr, ptr %8, align 8
  %23 = load i32, ptr %9, align 4
  %24 = insertvalue { ptr, i32 } poison, ptr %22, 0
  %25 = insertvalue { ptr, i32 } %24, i32 %23, 1
  resume { ptr, i32 } %25
}